target datalayout = "e-m:e-p270:32:32-p271:32:32-p272:64:64-i64:64-i128:128-f80:128-n8:16:32:64-S128"
target triple = "x86_64-unknown-linux-gnu"

%struct.MonitorHMP = type { %struct.Monitor, i8, ptr }
%struct.Monitor = type { %struct.CharBackend, i32, i8, i8, i8, ptr, %union.anon, %struct.QemuMutex, %struct.anon, ptr, i32, i32, i32 }
%struct.CharBackend = type { ptr, ptr, ptr, ptr, ptr, ptr, i32, i32 }
%union.anon = type { %struct.QTailQLink }
%struct.QTailQLink = type { ptr, ptr }
%struct.QemuMutex = type { %union.pthread_mutex_t, i8 }
%union.pthread_mutex_t = type { %struct.__pthread_mutex_s }
%struct.__pthread_mutex_s = type { i32, i32, i32, i32, i32, i16, i16, %struct.__pthread_internal_list }
%struct.__pthread_internal_list = type { ptr, ptr }
%struct.anon = type { ptr }

@.str.64 = private unnamed_addr constant [19 x i8] c"corrupted command\0A\00", align 1

; Function Attrs: nounwind sspstrong uwtable
define internal void @monitor_read(ptr noundef %opaque, ptr noundef %buf, i32 noundef %size) #0 {
entry:
  %opaque.addr = alloca ptr, align 8
  %buf.addr = alloca ptr, align 8
  %size.addr = alloca i32, align 4
  %mon = alloca ptr, align 8
  %__mptr = alloca ptr, align 8
  %tmp = alloca ptr, align 8
  %i = alloca i32, align 4
  store ptr %opaque, ptr %opaque.addr, align 8
  store ptr %buf, ptr %buf.addr, align 8
  store i32 %size, ptr %size.addr, align 4
  %0 = load ptr, ptr %opaque.addr, align 8
  store ptr %0, ptr %__mptr, align 8
  %1 = load ptr, ptr %__mptr, align 8
  %add.ptr = getelementptr i8, ptr %1, i64 0
  store ptr %add.ptr, ptr %tmp, align 8
  %2 = load ptr, ptr %tmp, align 8
  store ptr %2, ptr %mon, align 8
  %3 = load ptr, ptr %mon, align 8
  %rs = getelementptr inbounds %struct.MonitorHMP, ptr %3, i32 0, i32 2
  %4 = load ptr, ptr %rs, align 8
  %tobool = icmp ne ptr %4, null
  br i1 %tobool, label %if.then, label %if.else

if.then:                                          ; preds = %entry
  store i32 0, ptr %i, align 4
  br label %for.cond

for.cond:                                         ; preds = %for.inc, %if.then
  %5 = load i32, ptr %i, align 4
  %6 = load i32, ptr %size.addr, align 4
  %cmp = icmp slt i32 %5, %6
  br i1 %cmp, label %for.body, label %for.end

for.body:                                         ; preds = %for.cond
  %7 = load ptr, ptr %mon, align 8
  %rs1 = getelementptr inbounds %struct.MonitorHMP, ptr %7, i32 0, i32 2
  %8 = load ptr, ptr %rs1, align 8
  %9 = load ptr, ptr %buf.addr, align 8
  %10 = load i32, ptr %i, align 4
  %idxprom = sext i32 %10 to i64
  %arrayidx = getelementptr i8, ptr %9, i64 %idxprom
  %11 = load i8, ptr %arrayidx, align 1
  %conv = zext i8 %11 to i32
  call void @readline_handle_byte(ptr noundef %8, i32 noundef %conv)
  br label %for.inc

for.inc:                                          ; preds = %for.body
  %12 = load i32, ptr %i, align 4
  %inc = add i32 %12, 1
  store i32 %inc, ptr %i, align 4
  br label %for.cond, !llvm.loop !30

for.end:                                          ; preds = %for.cond
  br label %if.end11

if.else:                                          ; preds = %entry
  %13 = load i32, ptr %size.addr, align 4
  %cmp2 = icmp eq i32 %13, 0
  br i1 %cmp2, label %if.then9, label %lor.lhs.false

lor.lhs.false:                                    ; preds = %if.else
  %14 = load ptr, ptr %buf.addr, align 8
  %15 = load i32, ptr %size.addr, align 4
  %sub = sub i32 %15, 1
  %idxprom4 = sext i32 %sub to i64
  %arrayidx5 = getelementptr i8, ptr %14, i64 %idxprom4
  %16 = load i8, ptr %arrayidx5, align 1
  %conv6 = zext i8 %16 to i32
  %cmp7 = icmp ne i32 %conv6, 0
  br i1 %cmp7, label %if.then9, label %if.else10

if.then9:                                         ; preds = %lor.lhs.false, %if.else
  %17 = load ptr, ptr %mon, align 8
  %common = getelementptr inbounds %struct.MonitorHMP, ptr %17, i32 0, i32 0
  %call = call i32 (ptr, ptr, ...) @monitor_printf(ptr noundef %common, ptr noundef @.str.64)
  br label %if.end

if.else10:                                        ; preds = %lor.lhs.false
  %18 = load ptr, ptr %mon, align 8
  %19 = load ptr, ptr %buf.addr, align 8
  call void @handle_hmp_command(ptr noundef %18, ptr noundef %19)
  br label %if.end

if.end:                                           ; preds = %if.else10, %if.then9
  br label %if.end11

if.end11:                                         ; preds = %if.end, %for.end
  ret void
}