; Function Attrs: nounwind sspstrong uwtable
define internal void @monitor_read(ptr noundef %opaque, ptr noundef %buf, i32 noundef %size) #0 {
entry:
  %rs = getelementptr inbounds nuw i8, ptr %opaque, i64 176
  %0 = load ptr, ptr %rs, align 8
  %tobool.not = icmp eq ptr %0, null
  br i1 %tobool.not, label %if.else, label %for.cond.preheader

for.cond.preheader:                               ; preds = %entry
  %cmp10 = icmp sgt i32 %size, 0
  br i1 %cmp10, label %for.body.preheader, label %if.end11

for.body.preheader:                               ; preds = %for.cond.preheader
  %wide.trip.count = zext nneg i32 %size to i64
  br label %for.body

for.body:                                         ; preds = %for.body.preheader, %for.body
  %indvars.iv = phi i64 [ 0, %for.body.preheader ], [ %indvars.iv.next, %for.body ]
  %1 = load ptr, ptr %rs, align 8
  %arrayidx = getelementptr i8, ptr %buf, i64 %indvars.iv
  %2 = load i8, ptr %arrayidx, align 1
  %conv = zext i8 %2 to i32
  tail call void @readline_handle_byte(ptr noundef %1, i32 noundef %conv) #19
  %indvars.iv.next = add nuw nsw i64 %indvars.iv, 1
  %exitcond.not = icmp eq i64 %indvars.iv.next, %wide.trip.count
  br i1 %exitcond.not, label %if.end11, label %for.body, !llvm.loop !39

if.else:                                          ; preds = %entry
  %cmp2 = icmp eq i32 %size, 0
  br i1 %cmp2, label %if.then9, label %lor.lhs.false

lor.lhs.false:                                    ; preds = %if.else
  %sub = add i32 %size, -1
  %idxprom4 = sext i32 %sub to i64
  %arrayidx5 = getelementptr i8, ptr %buf, i64 %idxprom4
  %3 = load i8, ptr %arrayidx5, align 1
  %cmp7.not = icmp eq i8 %3, 0
  br i1 %cmp7.not, label %if.else10, label %if.then9

if.then9:                                         ; preds = %lor.lhs.false, %if.else
  %call = tail call i32 (ptr, ptr, ...) @monitor_printf(ptr noundef nonnull %opaque, ptr noundef nonnull @.str.64) #19
  br label %if.end11

if.else10:                                        ; preds = %lor.lhs.false
  tail call void @handle_hmp_command(ptr noundef nonnull %opaque, ptr noundef nonnull %buf)
  br label %if.end11

if.end11:                                         ; preds = %for.body, %for.cond.preheader, %if.then9, %if.else10
  ret void
}